; Function Attrs: mustprogress uwtable
define void @_ZNK7b2World7RayCastEP17b2RayCastCallbackRK6b2Vec2S4_(ptr noundef nonnull align 8 dereferenceable(103284) %this, ptr noundef %callback, ptr noundef nonnull readonly align 4 captures(none) dereferenceable(8) %point1, ptr noundef nonnull readonly align 4 captures(none) dereferenceable(8) %point2) local_unnamed_addr #0 align 2 {
entry:
  %wrapper = alloca %struct.b2WorldRayCastWrapper, align 8
  %input = alloca %struct.b2RayCastInput, align 8
  %m_contactManager = getelementptr inbounds nuw i8, ptr %this, i64 103064
  store ptr %m_contactManager, ptr %wrapper, align 8
  %callback2 = getelementptr inbounds nuw i8, ptr %wrapper, i64 8
  store ptr %callback, ptr %callback2, align 8
  %maxFraction = getelementptr inbounds nuw i8, ptr %input, i64 16
  store float 1.000000e+00, ptr %maxFraction, align 8
  %0 = load i64, ptr %point1, align 4
  store i64 %0, ptr %input, align 8
  %p2 = getelementptr inbounds nuw i8, ptr %input, i64 8
  %1 = load i64, ptr %point2, align 4
  store i64 %1, ptr %p2, align 8
  call void @_ZNK13b2DynamicTree7RayCastI21b2WorldRayCastWrapperEEvPT_RK14b2RayCastInput(ptr noundef nonnull align 8 dereferenceable(76) %m_contactManager, ptr noundef nonnull %wrapper, ptr noundef nonnull align 4 dereferenceable(20) %input)
  ret void
}